target datalayout = "e-m:e-p270:32:32-p271:32:32-p272:64:64-i64:64-i128:128-f80:128-n8:16:32:64-S128"
target triple = "x86_64-pc-linux-gnu"

%class.anon.8 = type { i8 }

@.str.9 = private unnamed_addr constant [10 x i8] c"algebraic\00", align 1
@.str.73 = private unnamed_addr constant [5 x i8] c"true\00", align 1
@.str.127 = private unnamed_addr constant [14 x i8] c"zero_accuracy\00", align 1
@.str.129 = private unnamed_addr constant [2 x i8] c"0\00", align 1
@.str.130 = private unnamed_addr constant [8 x i8] c"min_mag\00", align 1
@.str.132 = private unnamed_addr constant [3 x i8] c"16\00", align 1
@.str.133 = private unnamed_addr constant [7 x i8] c"factor\00", align 1
@.str.134 = private unnamed_addr constant [84 x i8] c"use polynomial factorization to simplify polynomials representing algebraic numbers\00", align 1
@.str.135 = private unnamed_addr constant [17 x i8] c"factor_max_prime\00", align 1
@.str.137 = private unnamed_addr constant [3 x i8] c"31\00", align 1
@.str.138 = private unnamed_addr constant [18 x i8] c"factor_num_primes\00", align 1
@.str.140 = private unnamed_addr constant [2 x i8] c"1\00", align 1
@.str.141 = private unnamed_addr constant [19 x i8] c"factor_search_size\00", align 1
@.str.143 = private unnamed_addr constant [5 x i8] c"5000\00", align 1

; Function Attrs: mustprogress uwtable
define linkonce_odr hidden void @_ZN16algebraic_params20collect_param_descrsER12param_descrs(ptr noundef nonnull align 8 dereferenceable(8) %0) #4 comdat align 2 {
  %2 = alloca ptr, align 8
  store ptr %0, ptr %2, align 8, !tbaa !7
  %3 = load ptr, ptr %2, align 8, !tbaa !7
  call void @_ZN12param_descrs6insertEPKc12cmd_arg_kindS1_S1_S1_(ptr noundef nonnull align 8 dereferenceable(8) %3, ptr noundef @.str.127, i32 noundef 0, ptr noundef @.str.128, ptr noundef @.str.129, ptr noundef @.str.9)
  %4 = load ptr, ptr %2, align 8, !tbaa !7
  call void @_ZN12param_descrs6insertEPKc12cmd_arg_kindS1_S1_S1_(ptr noundef nonnull align 8 dereferenceable(8) %4, ptr noundef @.str.130, i32 noundef 0, ptr noundef @.str.131, ptr noundef @.str.132, ptr noundef @.str.9)
  %5 = load ptr, ptr %2, align 8, !tbaa !7
  call void @_ZN12param_descrs6insertEPKc12cmd_arg_kindS1_S1_S1_(ptr noundef nonnull align 8 dereferenceable(8) %5, ptr noundef @.str.133, i32 noundef 1, ptr noundef @.str.134, ptr noundef @.str.73, ptr noundef @.str.9)
  %6 = load ptr, ptr %2, align 8, !tbaa !7
  call void @_ZN12param_descrs6insertEPKc12cmd_arg_kindS1_S1_S1_(ptr noundef nonnull align 8 dereferenceable(8) %6, ptr noundef @.str.135, i32 noundef 0, ptr noundef @.str.136, ptr noundef @.str.137, ptr noundef @.str.9)
  %7 = load ptr, ptr %2, align 8, !tbaa !7
  call void @_ZN12param_descrs6insertEPKc12cmd_arg_kindS1_S1_S1_(ptr noundef nonnull align 8 dereferenceable(8) %7, ptr noundef @.str.138, i32 noundef 0, ptr noundef @.str.139, ptr noundef @.str.140, ptr noundef @.str.9)
  %8 = load ptr, ptr %2, align 8, !tbaa !7
  call void @_ZN12param_descrs6insertEPKc12cmd_arg_kindS1_S1_S1_(ptr noundef nonnull align 8 dereferenceable(8) %8, ptr noundef @.str.141, i32 noundef 0, ptr noundef @.str.142, ptr noundef @.str.143, ptr noundef @.str.9)
  ret void
}

; Function Attrs: inlinehint mustprogress uwtable
define internal noundef ptr @"_ZZ24gparams_register_modulesvENK3$_5clEv"(ptr noundef nonnull align 1 dereferenceable(1) %0) #8 align 2 {
  %2 = alloca ptr, align 8
  %3 = alloca ptr, align 8
  store ptr %0, ptr %2, align 8, !tbaa !3
  call void @llvm.lifetime.start.p0(i64 8, ptr %3) #3
  %4 = call noalias noundef ptr @_ZN6memory8allocateEm(i64 noundef 8)
  call void @_ZN12param_descrsC1Ev(ptr noundef nonnull align 8 dereferenceable(8) %4)
  store ptr %4, ptr %3, align 8, !tbaa !7
  %5 = load ptr, ptr %3, align 8, !tbaa !7
  call void @_ZN16algebraic_params20collect_param_descrsER12param_descrs(ptr noundef nonnull align 8 dereferenceable(8) %5)
  %6 = load ptr, ptr %3, align 8, !tbaa !7
  call void @llvm.lifetime.end.p0(i64 8, ptr %3) #3
  ret ptr %6
}

; Function Attrs: inlinehint mustprogress uwtable
define internal noundef ptr @"_ZZ24gparams_register_modulesvEN3$_58__invokeEv"() #8 align 2 {
  %1 = alloca %class.anon.8, align 1
  %2 = call noundef ptr @"_ZZ24gparams_register_modulesvENK3$_5clEv"(ptr noundef nonnull align 1 dereferenceable(1) %1)
  ret ptr %2
}