; Function Attrs: inlinehint mustprogress uwtable
define internal noundef ptr @"_ZZ24gparams_register_modulesvEN3$_58__invokeEv"() #5 align 2 {
  %1 = tail call noalias noundef ptr @_ZN6memory8allocateEm(i64 noundef 8)
  tail call void @_ZN12param_descrsC1Ev(ptr noundef nonnull align 8 dereferenceable(8) %1)
  tail call void @_ZN12param_descrs6insertEPKc12cmd_arg_kindS1_S1_S1_(ptr noundef nonnull align 8 dereferenceable(8) %1, ptr noundef nonnull @.str.127, i32 noundef 0, ptr noundef nonnull @.str.128, ptr noundef nonnull @.str.129, ptr noundef nonnull @.str.9)
  tail call void @_ZN12param_descrs6insertEPKc12cmd_arg_kindS1_S1_S1_(ptr noundef nonnull align 8 dereferenceable(8) %1, ptr noundef nonnull @.str.130, i32 noundef 0, ptr noundef nonnull @.str.131, ptr noundef nonnull @.str.132, ptr noundef nonnull @.str.9)
  tail call void @_ZN12param_descrs6insertEPKc12cmd_arg_kindS1_S1_S1_(ptr noundef nonnull align 8 dereferenceable(8) %1, ptr noundef nonnull @.str.133, i32 noundef 1, ptr noundef nonnull @.str.134, ptr noundef nonnull @.str.73, ptr noundef nonnull @.str.9)
  tail call void @_ZN12param_descrs6insertEPKc12cmd_arg_kindS1_S1_S1_(ptr noundef nonnull align 8 dereferenceable(8) %1, ptr noundef nonnull @.str.135, i32 noundef 0, ptr noundef nonnull @.str.136, ptr noundef nonnull @.str.137, ptr noundef nonnull @.str.9)
  tail call void @_ZN12param_descrs6insertEPKc12cmd_arg_kindS1_S1_S1_(ptr noundef nonnull align 8 dereferenceable(8) %1, ptr noundef nonnull @.str.138, i32 noundef 0, ptr noundef nonnull @.str.139, ptr noundef nonnull @.str.140, ptr noundef nonnull @.str.9)
  tail call void @_ZN12param_descrs6insertEPKc12cmd_arg_kindS1_S1_S1_(ptr noundef nonnull align 8 dereferenceable(8) %1, ptr noundef nonnull @.str.141, i32 noundef 0, ptr noundef nonnull @.str.142, ptr noundef nonnull @.str.143, ptr noundef nonnull @.str.9)
  ret ptr %1
}